target datalayout = "e-m:e-p270:32:32-p271:32:32-p272:64:64-i64:64-i128:128-f80:128-n8:16:32:64-S128"
target triple = "x86_64-unknown-linux-gnu"

%"class.sat::literal" = type { i32 }
%class.symbol = type { ptr }
%"class.sat::extension" = type { ptr, i8, i32, %class.symbol, ptr }
%class.vector.14 = type { ptr }
%class.svector.15 = type { %class.vector.16 }
%class.vector.16 = type { ptr }
%class.svector.1 = type { %class.vector.2 }
%class.vector.2 = type { ptr }
%"class.sat::clause_allocator" = type { %class.sat_allocator, %class.id_gen }
%class.sat_allocator = type { ptr, i64, %class.ptr_vector.27, ptr, [65 x %class.ptr_vector.29] }
%class.ptr_vector.27 = type { %class.vector.28 }
%class.vector.28 = type { ptr }
%class.ptr_vector.29 = type { %class.vector.30 }
%class.vector.30 = type { ptr }
%class.id_gen = type { i32, %class.svector.1 }
%class.ptr_vector.31 = type { %class.vector.32 }
%class.vector.32 = type { ptr }
%class.svector.25 = type { %class.vector.26 }
%class.vector.26 = type { ptr }
%class.vector.33 = type { ptr }
%class.params_ref = type { ptr }
%"class.std::__cxx11::basic_string" = type { %"struct.std::__cxx11::basic_string<char>::_Alloc_hider", i64, %union.anon }
%"struct.std::__cxx11::basic_string<char>::_Alloc_hider" = type { ptr }
%union.anon = type { i64, [8 x i8] }
%"class.sat::solver" = type { %"class.sat::solver_core", i8, [7 x i8], %"struct.sat::config", %"struct.sat::stats", %class.scoped_ptr.141, %class.scoped_ptr.142, ptr, %"class.sat::drat", [2 x %"class.sat::clause_allocator"], i8, %class.random_gen, %"class.sat::cleaner", %class.svector.149, %"class.sat::model_converter", i8, %"class.sat::simplifier", %"class.sat::scc", %"class.sat::asymm_branch", %"class.sat::probing", i8, [7 x i8], %"class.sat::mus", %"class.sat::binspr", i8, i8, [6 x i8], %"class.sat::justification", %"class.sat::literal", %class.ptr_vector.31, %class.ptr_vector.31, i32, %class.svector.1, %class.svector.1, %class.svector.1, %class.svector.1, %class.vector.171, %class.svector.149, %class.svector.172, %class.svector.25, %class.svector.25, %class.svector.25, %class.svector.25, %class.svector.25, %class.svector.1, %class.svector.1, i32, %class.svector.15, %class.svector.1, i32, %class.svector.174, %class.svector.174, %class.svector.174, %class.svector.174, %class.svector.174, i32, double, %class.svector.25, %class.svector.25, %class.svector.25, %class.svector.158, i32, i32, i32, i32, i32, i32, %"struct.sat::backoff", i32, i32, %"struct.sat::backoff", %"struct.sat::backoff", %class.var_queue, i32, i32, i32, %class.ema, %class.ema, %class.ema, %class.ema, %class.ema, %class.svector.15, %class.svector.160, %"class.std::__cxx11::basic_string", i8, %class.visit_helper, %class.svector.176, %class.scoped_limit_trail, %class.stopwatch, %class.params_ref, %"struct.sat::no_drat_params", %class.scoped_ptr.169, %class.svector.15, %"class.sat::literal_set", %"class.sat::literal_set", %class.svector.15, i32, i32, i32, i32, i8, ptr, ptr, %class.statistics, i32, i32, i32, i32, i8, i32, i32, i32, i32, i32, i32, i32, double, i32, double, i8, i8, %class.svector.15, i8, %class.svector.174, i32, i32, i32, %class.svector.15, %class.svector.15, %class.svector.158, %class.svector.1, %class.approx_set_tpl, %class.svector.15, %class.svector.15, %class.vector.33, %class.svector.15, %class.svector.167, %class.u_map, %class.svector.15 }
%"class.sat::solver_core" = type { ptr, ptr }
%"struct.sat::config" = type <{ i64, i32, i32, i32, i8, [3 x i8], i32, i32, double, i32, i8, [3 x i8], i32, i8, [3 x i8], i32, [4 x i8], double, double, i32, i32, double, double, i32, [4 x i8], %class.symbol, double, i32, i32, i8, [3 x i8], i32, i32, i8, [3 x i8], i32, i8, [3 x i8], i32, i8, [3 x i8], i32, i8, i8, i8, i8, i32, i8, i8, i8, i8, i8, i8, i8, i8, i32, i8, i8, i8, i8, i32, double, i32, [4 x i8], double, double, double, double, i32, i8, i8, [2 x i8], double, i8, i8, [2 x i8], i32, double, i32, i32, i32, i32, i32, i32, i32, i32, i8, i8, i8, i8, i32, i32, i8, i8, i8, i8, i8, i8, i8, [5 x i8], %class.symbol, i8, i8, i8, i8, i8, i8, [2 x i8], i32, i32, i32, i8, [3 x i8], double, double, double, double, double, i8, [7 x i8] }>
%"struct.sat::stats" = type { i32, i32, i32, i32, i32, i32, i32, i32, i32, i32, i32, i32, i32, i32, i32, i32, i32, i32, i32, i32, i32 }
%class.scoped_ptr.141 = type { ptr }
%class.scoped_ptr.142 = type { ptr }
%class.random_gen = type { i32 }
%"class.sat::cleaner" = type { ptr, i32, i32, i32, i32 }
%"class.sat::model_converter" = type { %class.vector.151, i32, %class.svector.25, ptr, %class.svector.152 }
%class.vector.151 = type { ptr }
%class.svector.152 = type { %class.vector.153 }
%class.vector.153 = type { ptr }
%"class.sat::simplifier" = type { ptr, i32, %"class.sat::use_list", %"class.sat::ext_use_list", %"class.sat::clause_set", %class.svector.156, i32, %class.tracked_uint_set, i8, %"class.sat::tmp_clause", %class.svector.158, i32, i32, i8, i8, i8, i8, i32, i8, i8, i32, i8, i32, i8, i8, i32, i32, i32, i32, i32, i32, i32, i32, i32, i32, i8, i32, i8, i8, i32, i32, i32, i32, i32, i32, i32, i32, i32, i32, i32, i8, i32, %class.ptr_vector.31, %class.svector.15, %class.svector.160, %class.svector.160, %class.svector.15 }
%"class.sat::use_list" = type { %class.vector.154 }
%class.vector.154 = type { ptr }
%"class.sat::ext_use_list" = type { %class.vector.155 }
%class.vector.155 = type { ptr }
%"class.sat::clause_set" = type { %class.svector.1, %class.ptr_vector.31 }
%class.svector.156 = type { %class.vector.157 }
%class.vector.157 = type { ptr }
%class.tracked_uint_set = type { %class.svector.158, %class.svector.1 }
%"class.sat::tmp_clause" = type { ptr }
%"class.sat::scc" = type { ptr, i8, i8, i32, i32, %"class.sat::big" }
%"class.sat::big" = type { ptr, i32, %class.vector.14, %class.svector.25, %class.svector.162, %class.svector.162, %class.svector.15, %class.svector.15, i8, i8, %class.vector.14 }
%class.svector.162 = type { %class.vector.163 }
%class.vector.163 = type { ptr }
%"class.sat::asymm_branch" = type { ptr, %class.params_ref, i64, %class.random_gen, i32, i32, i8, i32, i32, i8, i8, i64, i32, i32, i32, %class.svector.15, %class.svector.15, %class.svector.164, %class.svector.164, %class.svector.15, %class.svector.15 }
%class.svector.164 = type { %class.vector.165 }
%class.vector.165 = type { ptr }
%"class.sat::probing" = type { ptr, i32, %"class.sat::literal_set", %class.svector.15, i32, i8, i32, i8, i8, i64, i32, %class.vector.166, %class.svector.167, %"class.sat::big" }
%class.vector.166 = type { ptr }
%"class.sat::mus" = type <{ ptr, %class.svector.15, %class.svector.15, i8, [7 x i8], %class.svector.149, i32, [4 x i8] }>
%"class.sat::binspr" = type <{ ptr, %class.scoped_ptr.169, i32, i32, %class.vector.170, i32, i32, %class.svector.25, %class.svector.25, %class.svector.15, %class.svector.15, i32, i32, i32, i32, i32, [4 x i32], [5 x i32], [5 x i32], [4 x i8] }>
%class.vector.170 = type { ptr }
%"class.sat::justification" = type <{ i32, [4 x i8], i64, i32, [4 x i8] }>
%class.vector.171 = type { ptr }
%class.svector.149 = type { %class.vector.150 }
%class.vector.150 = type { ptr }
%class.svector.172 = type { %class.vector.173 }
%class.vector.173 = type { ptr }
%"struct.sat::backoff" = type { i32, i32, i32, i32, i32 }
%class.var_queue = type { %class.heap }
%class.heap = type { %"struct.var_queue<svector<unsigned int>>::lt", %class.svector.162, %class.svector.162 }
%"struct.var_queue<svector<unsigned int>>::lt" = type { ptr }
%class.ema = type { double, double, double, i32, i32 }
%class.svector.160 = type { %class.vector.161 }
%class.vector.161 = type { ptr }
%class.visit_helper = type { %class.svector.1, i32, i32 }
%class.svector.176 = type { %class.vector.177 }
%class.vector.177 = type { ptr }
%class.scoped_limit_trail = type { %class.svector.1, i32, i32 }
%class.stopwatch = type <{ %"class.std::chrono::time_point", %"class.std::chrono::duration", i8, [7 x i8] }>
%"class.std::chrono::time_point" = type { %"class.std::chrono::duration" }
%"class.std::chrono::duration" = type { i64 }
%"struct.sat::no_drat_params" = type { %class.params_ref }
%class.scoped_ptr.169 = type { ptr }
%"class.sat::literal_set" = type { %class.tracked_uint_set }
%class.statistics = type { %class.svector.178, %class.svector.180 }
%class.svector.178 = type { %class.vector.179 }
%class.vector.179 = type { ptr }
%class.svector.180 = type { %class.vector.181 }
%class.vector.181 = type { ptr }
%class.svector.174 = type { %class.vector.175 }
%class.vector.175 = type { ptr }
%class.svector.158 = type { %class.vector.159 }
%class.vector.159 = type { ptr }
%class.approx_set_tpl = type { i32 }
%class.svector.167 = type { %class.vector.168 }
%class.vector.168 = type { ptr }
%class.u_map = type { %class.map.182 }
%class.map.182 = type { %class.table2map.183 }
%class.table2map.183 = type { %class.core_hashtable.184 }
%class.core_hashtable.184 = type <{ ptr, i32, i32, i32, [4 x i8] }>
%"class.sat::drat" = type { ptr, %class.svector.143, ptr, %"class.sat::clause_allocator", ptr, ptr, %class.svector.145, %class.svector.147, %class.vector.33, %class.svector.149, i8, i8, i8, i8, i8, %"struct.sat::drat::stats" }
%class.svector.143 = type { %class.vector.144 }
%class.vector.144 = type { ptr }
%class.svector.145 = type { %class.vector.146 }
%class.vector.146 = type { ptr }
%class.svector.147 = type { %class.vector.148 }
%class.vector.148 = type { ptr }
%"struct.sat::drat::stats" = type { i32, i32, i32, i32 }
%"class.sat::constraint_base" = type { ptr, [0 x i32] }
%"struct.user_solver::solver::justification" = type { i32 }

; Function Attrs: mustprogress nounwind uwtable
define linkonce_odr hidden noundef ptr @_ZN3sat15constraint_base12mem2base_ptrEPKv(ptr noundef %mem) #4 comdat align 2 {
entry:
  %mem.addr = alloca ptr, align 8
  store ptr %mem, ptr %mem.addr, align 8
  %0 = load ptr, ptr %mem.addr, align 8
  %call = call noundef i64 @_ZN3sat15constraint_base8ext_sizeEv()
  %idx.neg = sub i64 0, %call
  %add.ptr = getelementptr inbounds i8, ptr %0, i64 %idx.neg
  ret ptr %add.ptr
}

; Function Attrs: mustprogress nounwind uwtable
define linkonce_odr hidden void @_ZN3sat13justificationC2EjmNS0_4kindE(ptr noundef nonnull align 8 dereferenceable(20) %this, i32 noundef %lvl, i64 noundef %idx, i32 noundef %k) unnamed_addr #4 comdat align 2 {
entry:
  %this.addr = alloca ptr, align 8
  %lvl.addr = alloca i32, align 4
  %idx.addr = alloca i64, align 8
  %k.addr = alloca i32, align 4
  store ptr %this, ptr %this.addr, align 8
  store i32 %lvl, ptr %lvl.addr, align 4
  store i64 %idx, ptr %idx.addr, align 8
  store i32 %k, ptr %k.addr, align 4
  %this1 = load ptr, ptr %this.addr, align 8
  %m_level = getelementptr inbounds %"class.sat::justification", ptr %this1, i32 0, i32 0
  %0 = load i32, ptr %lvl.addr, align 4
  store i32 %0, ptr %m_level, align 8
  %m_val1 = getelementptr inbounds %"class.sat::justification", ptr %this1, i32 0, i32 2
  %1 = load i64, ptr %idx.addr, align 8
  store i64 %1, ptr %m_val1, align 8
  %m_val2 = getelementptr inbounds %"class.sat::justification", ptr %this1, i32 0, i32 3
  %2 = load i32, ptr %k.addr, align 4
  store i32 %2, ptr %m_val2, align 8
  ret void
}

; Function Attrs: mustprogress uwtable
define linkonce_odr hidden noundef i64 @_ZN3sat15constraint_base8mem2baseEPKv(ptr noundef %mem) #5 comdat align 2 {
entry:
  %mem.addr = alloca ptr, align 8
  store ptr %mem, ptr %mem.addr, align 8
  %0 = load ptr, ptr %mem.addr, align 8
  %call = call noundef ptr @_ZN3sat15constraint_base12mem2base_ptrEPKv(ptr noundef %0)
  %1 = ptrtoint ptr %call to i64
  ret i64 %1
}

; Function Attrs: mustprogress nounwind uwtable
define linkonce_odr hidden noundef i64 @_ZN3sat15constraint_base8ext_sizeEv() #4 comdat align 2 {
entry:
  ret i64 8
}

; Function Attrs: mustprogress uwtable
define linkonce_odr hidden noundef i64 @_ZN3sat15constraint_base8obj_sizeEm(i64 noundef %sz) #5 comdat align 2 {
entry:
  %sz.addr = alloca i64, align 8
  store i64 %sz, ptr %sz.addr, align 8
  %call = call noundef i64 @_ZN3sat15constraint_base8ext_sizeEv()
  %0 = load i64, ptr %sz.addr, align 8
  %add = add i64 %call, %0
  ret i64 %add
}

; Function Attrs: mustprogress uwtable
define linkonce_odr hidden void @_ZN3sat13justification20mk_ext_justificationEjm(ptr noalias sret(%"class.sat::justification") align 8 %agg.result, i32 noundef %lvl, i64 noundef %idx) #5 comdat align 2 {
entry:
  %lvl.addr = alloca i32, align 4
  %idx.addr = alloca i64, align 8
  store i32 %lvl, ptr %lvl.addr, align 4
  store i64 %idx, ptr %idx.addr, align 8
  %0 = load i32, ptr %lvl.addr, align 4
  %1 = load i64, ptr %idx.addr, align 8
  call void @_ZN3sat13justificationC2EjmNS0_4kindE(ptr noundef nonnull align 8 dereferenceable(20) %agg.result, i32 noundef %0, i64 noundef %1, i32 noundef 3)
  ret void
}

; Function Attrs: mustprogress uwtable
define linkonce_odr hidden noundef i64 @_ZNK11user_solver6solver13justification8to_indexEv(ptr noundef nonnull align 4 dereferenceable(4) %this) #5 comdat align 2 {
entry:
  %this.addr = alloca ptr, align 8
  store ptr %this, ptr %this.addr, align 8
  %this1 = load ptr, ptr %this.addr, align 8
  %call = call noundef i64 @_ZN3sat15constraint_base8mem2baseEPKv(ptr noundef %this1)
  ret i64 %call
}

; Function Attrs: mustprogress nounwind uwtable
define linkonce_odr hidden noundef i32 @_ZNK3sat6solver9scope_lvlEv(ptr noundef nonnull align 8 dereferenceable(4408) %this) #4 comdat align 2 {
entry:
  %this.addr = alloca ptr, align 8
  store ptr %this, ptr %this.addr, align 8
  %this1 = load ptr, ptr %this.addr, align 8
  %m_scope_lvl = getelementptr inbounds %"class.sat::solver", ptr %this1, i32 0, i32 74
  %0 = load i32, ptr %m_scope_lvl, align 4
  ret i32 %0
}

; Function Attrs: mustprogress nounwind uwtable
define linkonce_odr hidden noundef nonnull align 8 dereferenceable(4408) ptr @_ZN3sat9extension1sEv(ptr noundef nonnull align 8 dereferenceable(32) %this) #4 comdat align 2 {
entry:
  %this.addr = alloca ptr, align 8
  store ptr %this, ptr %this.addr, align 8
  %this1 = load ptr, ptr %this.addr, align 8
  %m_solver = getelementptr inbounds %"class.sat::extension", ptr %this1, i32 0, i32 4
  %0 = load ptr, ptr %m_solver, align 8
  ret ptr %0
}

; Function Attrs: mustprogress nounwind uwtable
define linkonce_odr hidden void @_ZN11user_solver6solver13justificationC2Ej(ptr noundef nonnull align 4 dereferenceable(4) %this, i32 noundef %prop_index) unnamed_addr #4 comdat align 2 {
entry:
  %this.addr = alloca ptr, align 8
  %prop_index.addr = alloca i32, align 4
  store ptr %this, ptr %this.addr, align 8
  store i32 %prop_index, ptr %prop_index.addr, align 4
  %this1 = load ptr, ptr %this.addr, align 8
  %m_propagation_index = getelementptr inbounds %"struct.user_solver::solver::justification", ptr %this1, i32 0, i32 0
  %0 = load i32, ptr %prop_index.addr, align 4
  store i32 %0, ptr %m_propagation_index, align 4
  ret void
}

; Function Attrs: mustprogress nounwind uwtable
define linkonce_odr hidden noundef ptr @_ZN3sat15constraint_base7ptr2memEPv(ptr noundef %ptr) #4 comdat align 2 {
entry:
  %ptr.addr = alloca ptr, align 8
  store ptr %ptr, ptr %ptr.addr, align 8
  %0 = load ptr, ptr %ptr.addr, align 8
  %call = call noundef i64 @_ZN3sat15constraint_base8ext_sizeEv()
  %add.ptr = getelementptr inbounds i8, ptr %0, i64 %call
  ret ptr %add.ptr
}

; Function Attrs: mustprogress nounwind uwtable
define linkonce_odr hidden void @_ZN3sat15constraint_base10initializeEPvPNS_9extensionE(ptr noundef %ptr, ptr noundef %ext) #4 comdat align 2 {
entry:
  %ptr.addr = alloca ptr, align 8
  %ext.addr = alloca ptr, align 8
  store ptr %ptr, ptr %ptr.addr, align 8
  store ptr %ext, ptr %ext.addr, align 8
  %0 = load ptr, ptr %ext.addr, align 8
  %1 = load ptr, ptr %ptr.addr, align 8
  %m_ex = getelementptr inbounds %"class.sat::constraint_base", ptr %1, i32 0, i32 0
  store ptr %0, ptr %m_ex, align 8
  ret void
}

; Function Attrs: mustprogress uwtable
define linkonce_odr hidden noundef i64 @_ZN11user_solver6solver13justification12get_obj_sizeEv() #5 comdat align 2 {
entry:
  %call = call noundef i64 @_ZN3sat15constraint_base8obj_sizeEm(i64 noundef 4)
  ret i64 %call
}

; Function Attrs: mustprogress uwtable
define hidden void @_ZN11user_solver6solver16mk_justificationEj(ptr noalias sret(%"class.sat::justification") align 8 %agg.result, ptr noundef nonnull align 8 dereferenceable(492) %this, i32 noundef %prop_idx) #5 align 2 {
entry:
  %this.addr = alloca ptr, align 8
  %prop_idx.addr = alloca i32, align 4
  %mem = alloca ptr, align 8
  %constraint = alloca ptr, align 8
  store ptr %this, ptr %this.addr, align 8
  store i32 %prop_idx, ptr %prop_idx.addr, align 4
  %this1 = load ptr, ptr %this.addr, align 8
  %call = call noundef nonnull align 8 dereferenceable(40) ptr @_ZN3euf13th_euf_solver10get_regionEv(ptr noundef nonnull align 8 dereferenceable(108) %this1)
  %call2 = call noundef i64 @_ZN11user_solver6solver13justification12get_obj_sizeEv()
  %call3 = call noundef ptr @_ZN6region8allocateEm(ptr noundef nonnull align 8 dereferenceable(40) %call, i64 noundef %call2)
  store ptr %call3, ptr %mem, align 8
  %0 = load ptr, ptr %mem, align 8
  call void @_ZN3sat15constraint_base10initializeEPvPNS_9extensionE(ptr noundef %0, ptr noundef %this1)
  %1 = load ptr, ptr %mem, align 8
  %call4 = call noundef ptr @_ZN3sat15constraint_base7ptr2memEPv(ptr noundef %1)
  %2 = load i32, ptr %prop_idx.addr, align 4
  call void @_ZN11user_solver6solver13justificationC2Ej(ptr noundef nonnull align 4 dereferenceable(4) %call4, i32 noundef %2)
  store ptr %call4, ptr %constraint, align 8
  %call5 = call noundef nonnull align 8 dereferenceable(4408) ptr @_ZN3sat9extension1sEv(ptr noundef nonnull align 8 dereferenceable(32) %this1)
  %call6 = call noundef i32 @_ZNK3sat6solver9scope_lvlEv(ptr noundef nonnull align 8 dereferenceable(4408) %call5)
  %3 = load ptr, ptr %constraint, align 8
  %call7 = call noundef i64 @_ZNK11user_solver6solver13justification8to_indexEv(ptr noundef nonnull align 4 dereferenceable(4) %3)
  call void @_ZN3sat13justification20mk_ext_justificationEjm(ptr sret(%"class.sat::justification") align 8 %agg.result, i32 noundef %call6, i64 noundef %call7)
  ret void
}