; Function Attrs: mustprogress uwtable
define hidden void @_ZN11user_solver6solver16mk_justificationEj(ptr noalias nocapture writeonly sret(%"class.sat::justification") align 8 %agg.result, ptr noundef nonnull align 8 dereferenceable(492) %this, i32 noundef %prop_idx) local_unnamed_addr #3 align 2 {
entry:
  %call = tail call noundef nonnull align 8 dereferenceable(40) ptr @_ZN3euf13th_euf_solver10get_regionEv(ptr noundef nonnull align 8 dereferenceable(108) %this)
  %call3 = tail call noundef ptr @_ZN6region8allocateEm(ptr noundef nonnull align 8 dereferenceable(40) %call, i64 noundef 12)
  store ptr %this, ptr %call3, align 8
  %add.ptr.i = getelementptr inbounds i8, ptr %call3, i64 8
  store i32 %prop_idx, ptr %add.ptr.i, align 4
  %m_solver.i = getelementptr inbounds i8, ptr %this, i64 24
  %0 = load ptr, ptr %m_solver.i, align 8
  %m_scope_lvl.i = getelementptr inbounds i8, ptr %0, i64 3756
  %1 = load i32, ptr %m_scope_lvl.i, align 4
  %2 = ptrtoint ptr %call3 to i64
  store i32 %1, ptr %agg.result, align 8, !alias.scope !22
  %m_val1.i.i = getelementptr inbounds i8, ptr %agg.result, i64 8
  store i64 %2, ptr %m_val1.i.i, align 8, !alias.scope !22
  %m_val2.i.i = getelementptr inbounds i8, ptr %agg.result, i64 16
  store i32 3, ptr %m_val2.i.i, align 8, !alias.scope !22
  ret void
}